; Function Attrs: mustprogress nounwind uwtable
define hidden void @_ZN2cv3dlsD2Ev(ptr noundef nonnull align 8 dereferenceable(640) %0) unnamed_addr #6 align 2 personality ptr @__gxx_personality_v0 {
  %2 = getelementptr inbounds nuw i8, ptr %0, i64 536
  tail call void @_ZN2cv3MatD1Ev(ptr noundef nonnull align 8 dereferenceable(96) %2) #22
  %3 = getelementptr inbounds nuw i8, ptr %0, i64 440
  tail call void @_ZN2cv3MatD1Ev(ptr noundef nonnull align 8 dereferenceable(96) %3) #22
  %4 = getelementptr inbounds nuw i8, ptr %0, i64 416
  %5 = load ptr, ptr %4, align 8, !tbaa !68
  %6 = getelementptr inbounds nuw i8, ptr %0, i64 424
  %7 = load ptr, ptr %6, align 8, !tbaa !69
  %.not4.i.i.i.i = icmp eq ptr %5, %7
  br i1 %.not4.i.i.i.i, label %_ZSt8_DestroyIPN2cv3MatES1_EvT_S3_RSaIT0_E.exit.i, label %.lr.ph.i.i.i.i

.lr.ph.i.i.i.i:                                   ; preds = %1, %.lr.ph.i.i.i.i
  %.05.i.i.i.i = phi ptr [ %8, %.lr.ph.i.i.i.i ], [ %5, %1 ]
  tail call void @_ZN2cv3MatD1Ev(ptr noundef nonnull align 8 dereferenceable(96) %.05.i.i.i.i) #22
  %8 = getelementptr inbounds nuw i8, ptr %.05.i.i.i.i, i64 96
  %.not.i.i.i.i = icmp eq ptr %8, %7
  br i1 %.not.i.i.i.i, label %_ZSt8_DestroyIPN2cv3MatES1_EvT_S3_RSaIT0_E.exitthread-pre-split.i, label %.lr.ph.i.i.i.i, !llvm.loop !70

_ZSt8_DestroyIPN2cv3MatES1_EvT_S3_RSaIT0_E.exitthread-pre-split.i: ; preds = %.lr.ph.i.i.i.i
  %.pr.i = load ptr, ptr %4, align 8, !tbaa !68
  br label %_ZSt8_DestroyIPN2cv3MatES1_EvT_S3_RSaIT0_E.exit.i

_ZSt8_DestroyIPN2cv3MatES1_EvT_S3_RSaIT0_E.exit.i: ; preds = %_ZSt8_DestroyIPN2cv3MatES1_EvT_S3_RSaIT0_E.exitthread-pre-split.i, %1
  %9 = phi ptr [ %.pr.i, %_ZSt8_DestroyIPN2cv3MatES1_EvT_S3_RSaIT0_E.exitthread-pre-split.i ], [ %5, %1 ]
  %.not.i.i.i = icmp eq ptr %9, null
  br i1 %.not.i.i.i, label %_ZNSt6vectorIN2cv3MatESaIS1_EED2Ev.exit, label %10

10:                                               ; preds = %_ZSt8_DestroyIPN2cv3MatES1_EvT_S3_RSaIT0_E.exit.i
  tail call void @_ZdlPv(ptr noundef nonnull %9) #23
  br label %_ZNSt6vectorIN2cv3MatESaIS1_EED2Ev.exit

_ZNSt6vectorIN2cv3MatESaIS1_EED2Ev.exit:          ; preds = %_ZSt8_DestroyIPN2cv3MatES1_EvT_S3_RSaIT0_E.exit.i, %10
  %11 = getelementptr inbounds nuw i8, ptr %0, i64 392
  %12 = load ptr, ptr %11, align 8, !tbaa !68
  %13 = getelementptr inbounds nuw i8, ptr %0, i64 400
  %14 = load ptr, ptr %13, align 8, !tbaa !69
  %.not4.i.i.i.i1 = icmp eq ptr %12, %14
  br i1 %.not4.i.i.i.i1, label %_ZSt8_DestroyIPN2cv3MatES1_EvT_S3_RSaIT0_E.exit.i7, label %.lr.ph.i.i.i.i2

.lr.ph.i.i.i.i2:                                  ; preds = %_ZNSt6vectorIN2cv3MatESaIS1_EED2Ev.exit, %.lr.ph.i.i.i.i2
  %.05.i.i.i.i3 = phi ptr [ %15, %.lr.ph.i.i.i.i2 ], [ %12, %_ZNSt6vectorIN2cv3MatESaIS1_EED2Ev.exit ]
  tail call void @_ZN2cv3MatD1Ev(ptr noundef nonnull align 8 dereferenceable(96) %.05.i.i.i.i3) #22
  %15 = getelementptr inbounds nuw i8, ptr %.05.i.i.i.i3, i64 96
  %.not.i.i.i.i4 = icmp eq ptr %15, %14
  br i1 %.not.i.i.i.i4, label %_ZSt8_DestroyIPN2cv3MatES1_EvT_S3_RSaIT0_E.exitthread-pre-split.i5, label %.lr.ph.i.i.i.i2, !llvm.loop !70

_ZSt8_DestroyIPN2cv3MatES1_EvT_S3_RSaIT0_E.exitthread-pre-split.i5: ; preds = %.lr.ph.i.i.i.i2
  %.pr.i6 = load ptr, ptr %11, align 8, !tbaa !68
  br label %_ZSt8_DestroyIPN2cv3MatES1_EvT_S3_RSaIT0_E.exit.i7

_ZSt8_DestroyIPN2cv3MatES1_EvT_S3_RSaIT0_E.exit.i7: ; preds = %_ZSt8_DestroyIPN2cv3MatES1_EvT_S3_RSaIT0_E.exitthread-pre-split.i5, %_ZNSt6vectorIN2cv3MatESaIS1_EED2Ev.exit
  %16 = phi ptr [ %.pr.i6, %_ZSt8_DestroyIPN2cv3MatES1_EvT_S3_RSaIT0_E.exitthread-pre-split.i5 ], [ %12, %_ZNSt6vectorIN2cv3MatESaIS1_EED2Ev.exit ]
  %.not.i.i.i8 = icmp eq ptr %16, null
  br i1 %.not.i.i.i8, label %_ZNSt6vectorIN2cv3MatESaIS1_EED2Ev.exit9, label %17

17:                                               ; preds = %_ZSt8_DestroyIPN2cv3MatES1_EvT_S3_RSaIT0_E.exit.i7
  tail call void @_ZdlPv(ptr noundef nonnull %16) #23
  br label %_ZNSt6vectorIN2cv3MatESaIS1_EED2Ev.exit9

_ZNSt6vectorIN2cv3MatESaIS1_EED2Ev.exit9:         ; preds = %_ZSt8_DestroyIPN2cv3MatES1_EvT_S3_RSaIT0_E.exit.i7, %17
  %18 = getelementptr inbounds nuw i8, ptr %0, i64 368
  %19 = load ptr, ptr %18, align 8, !tbaa !38
  %.not.i.i.i10 = icmp eq ptr %19, null
  br i1 %.not.i.i.i10, label %_ZNSt6vectorIdSaIdEED2Ev.exit, label %20

20:                                               ; preds = %_ZNSt6vectorIN2cv3MatESaIS1_EED2Ev.exit9
  tail call void @_ZdlPv(ptr noundef nonnull %19) #23
  br label %_ZNSt6vectorIdSaIdEED2Ev.exit

_ZNSt6vectorIdSaIdEED2Ev.exit:                    ; preds = %_ZNSt6vectorIN2cv3MatESaIS1_EED2Ev.exit9, %20
  %21 = getelementptr inbounds nuw i8, ptr %0, i64 344
  %22 = load ptr, ptr %21, align 8, !tbaa !38
  %.not.i.i.i11 = icmp eq ptr %22, null
  br i1 %.not.i.i.i11, label %_ZNSt6vectorIdSaIdEED2Ev.exit12, label %23

23:                                               ; preds = %_ZNSt6vectorIdSaIdEED2Ev.exit
  tail call void @_ZdlPv(ptr noundef nonnull %22) #23
  br label %_ZNSt6vectorIdSaIdEED2Ev.exit12

_ZNSt6vectorIdSaIdEED2Ev.exit12:                  ; preds = %_ZNSt6vectorIdSaIdEED2Ev.exit, %23
  %24 = getelementptr inbounds nuw i8, ptr %0, i64 320
  %25 = load ptr, ptr %24, align 8, !tbaa !38
  %.not.i.i.i13 = icmp eq ptr %25, null
  br i1 %.not.i.i.i13, label %_ZNSt6vectorIdSaIdEED2Ev.exit14, label %26

26:                                               ; preds = %_ZNSt6vectorIdSaIdEED2Ev.exit12
  tail call void @_ZdlPv(ptr noundef nonnull %25) #23
  br label %_ZNSt6vectorIdSaIdEED2Ev.exit14

_ZNSt6vectorIdSaIdEED2Ev.exit14:                  ; preds = %_ZNSt6vectorIdSaIdEED2Ev.exit12, %26
  %27 = getelementptr inbounds nuw i8, ptr %0, i64 296
  %28 = load ptr, ptr %27, align 8, !tbaa !38
  %.not.i.i.i15 = icmp eq ptr %28, null
  br i1 %.not.i.i.i15, label %_ZNSt6vectorIdSaIdEED2Ev.exit16, label %29

29:                                               ; preds = %_ZNSt6vectorIdSaIdEED2Ev.exit14
  tail call void @_ZdlPv(ptr noundef nonnull %28) #23
  br label %_ZNSt6vectorIdSaIdEED2Ev.exit16

_ZNSt6vectorIdSaIdEED2Ev.exit16:                  ; preds = %_ZNSt6vectorIdSaIdEED2Ev.exit14, %29
  %30 = getelementptr inbounds nuw i8, ptr %0, i64 192
  tail call void @_ZN2cv3MatD1Ev(ptr noundef nonnull align 8 dereferenceable(96) %30) #22
  %31 = getelementptr inbounds nuw i8, ptr %0, i64 96
  tail call void @_ZN2cv3MatD1Ev(ptr noundef nonnull align 8 dereferenceable(96) %31) #22
  tail call void @_ZN2cv3MatD1Ev(ptr noundef nonnull align 8 dereferenceable(96) %0) #22
  ret void
}